; ModuleID = '7/1.c'
source_filename = "7/1.c"
target datalayout = "e-m:e-p270:32:32-p271:32:32-p272:64:64-i64:64-f80:128-n8:16:32:64-S128"
target triple = "x86_64-pc-linux-gnu"

@.str = private unnamed_addr constant [3 x i8] c"%c\00", align 1
@.str.1 = private unnamed_addr constant [3 x i8] c"%s\00", align 1

; Function Attrs: noinline nounwind uwtable
define dso_local i32 @main() #0 {
  %1 = alloca i32, align 4
  %2 = alloca i32, align 4
  %3 = alloca i32, align 4
  %4 = alloca i32, align 4
  %5 = alloca i32, align 4
  %6 = alloca i32, align 4
  %7 = alloca i32, align 4
  %8 = alloca [300 x i8], align 16
  %9 = alloca [300 x i8], align 16
  %10 = alloca [300 x i8], align 16
  store i32 0, i32* %1, align 4
  %11 = getelementptr inbounds [300 x i8], [300 x i8]* %8, i64 0, i64 0
  %12 = call i32 (i8*, ...) bitcast (i32 (...)* @gets to i32 (i8*, ...)*)(i8* %11)
  %13 = getelementptr inbounds [300 x i8], [300 x i8]* %8, i64 0, i64 0
  %14 = call i64 @strlen(i8* %13) #3
  %15 = trunc i64 %14 to i32
  store i32 %15, i32* %2, align 4
  %16 = getelementptr inbounds [300 x i8], [300 x i8]* %9, i64 0, i64 0
  %17 = call i32 (i8*, ...) bitcast (i32 (...)* @gets to i32 (i8*, ...)*)(i8* %16)
  %18 = getelementptr inbounds [300 x i8], [300 x i8]* %10, i64 0, i64 0
  %19 = call i32 (i8*, ...) bitcast (i32 (...)* @gets to i32 (i8*, ...)*)(i8* %18)
  %20 = getelementptr inbounds [300 x i8], [300 x i8]* %9, i64 0, i64 0
  %21 = call i64 @strlen(i8* %20) #3
  %22 = trunc i64 %21 to i32
  store i32 %22, i32* %3, align 4
  store i32 0, i32* %6, align 4
  store i32 0, i32* %4, align 4
  br label %23

23:                                               ; preds = %93, %0
  %24 = load i32, i32* %4, align 4
  %25 = load i32, i32* %2, align 4
  %26 = load i32, i32* %3, align 4
  %27 = sub nsw i32 %25, %26
  %28 = icmp sle i32 %24, %27
  br i1 %28, label %29, label %96

29:                                               ; preds = %23
  store i32 1, i32* %7, align 4
  store i32 0, i32* %5, align 4
  br label %30

30:                                               ; preds = %50, %29
  %31 = load i32, i32* %5, align 4
  %32 = load i32, i32* %3, align 4
  %33 = icmp slt i32 %31, %32
  br i1 %33, label %34, label %53

34:                                               ; preds = %30
  %35 = load i32, i32* %5, align 4
  %36 = sext i32 %35 to i64
  %37 = getelementptr inbounds [300 x i8], [300 x i8]* %9, i64 0, i64 %36
  %38 = load i8, i8* %37, align 1
  %39 = sext i8 %38 to i32
  %40 = load i32, i32* %4, align 4
  %41 = load i32, i32* %5, align 4
  %42 = add nsw i32 %40, %41
  %43 = sext i32 %42 to i64
  %44 = getelementptr inbounds [300 x i8], [300 x i8]* %8, i64 0, i64 %43
  %45 = load i8, i8* %44, align 1
  %46 = sext i8 %45 to i32
  %47 = icmp ne i32 %39, %46
  br i1 %47, label %48, label %49

48:                                               ; preds = %34
  store i32 0, i32* %7, align 4
  br label %53

49:                                               ; preds = %34
  br label %50

50:                                               ; preds = %49
  %51 = load i32, i32* %5, align 4
  %52 = add nsw i32 %51, 1
  store i32 %52, i32* %5, align 4
  br label %30

53:                                               ; preds = %48, %30
  %54 = load i32, i32* %7, align 4
  %55 = icmp eq i32 %54, 0
  br i1 %55, label %56, label %57

56:                                               ; preds = %53
  br label %93

57:                                               ; preds = %53
  store i32 0, i32* %5, align 4
  br label %58

58:                                               ; preds = %69, %57
  %59 = load i32, i32* %5, align 4
  %60 = load i32, i32* %4, align 4
  %61 = icmp slt i32 %59, %60
  br i1 %61, label %62, label %72

62:                                               ; preds = %58
  %63 = load i32, i32* %5, align 4
  %64 = sext i32 %63 to i64
  %65 = getelementptr inbounds [300 x i8], [300 x i8]* %8, i64 0, i64 %64
  %66 = load i8, i8* %65, align 1
  %67 = sext i8 %66 to i32
  %68 = call i32 (i8*, ...) @printf(i8* getelementptr inbounds ([3 x i8], [3 x i8]* @.str, i64 0, i64 0), i32 %67)
  br label %69

69:                                               ; preds = %62
  %70 = load i32, i32* %5, align 4
  %71 = add nsw i32 %70, 1
  store i32 %71, i32* %5, align 4
  br label %58

72:                                               ; preds = %58
  %73 = getelementptr inbounds [300 x i8], [300 x i8]* %10, i64 0, i64 0
  %74 = call i32 (i8*, ...) @printf(i8* getelementptr inbounds ([3 x i8], [3 x i8]* @.str.1, i64 0, i64 0), i8* %73)
  %75 = load i32, i32* %4, align 4
  %76 = load i32, i32* %3, align 4
  %77 = add nsw i32 %75, %76
  store i32 %77, i32* %5, align 4
  br label %78

78:                                               ; preds = %89, %72
  %79 = load i32, i32* %5, align 4
  %80 = load i32, i32* %2, align 4
  %81 = icmp slt i32 %79, %80
  br i1 %81, label %82, label %92

82:                                               ; preds = %78
  %83 = load i32, i32* %5, align 4
  %84 = sext i32 %83 to i64
  %85 = getelementptr inbounds [300 x i8], [300 x i8]* %8, i64 0, i64 %84
  %86 = load i8, i8* %85, align 1
  %87 = sext i8 %86 to i32
  %88 = call i32 (i8*, ...) @printf(i8* getelementptr inbounds ([3 x i8], [3 x i8]* @.str, i64 0, i64 0), i32 %87)
  br label %89

89:                                               ; preds = %82
  %90 = load i32, i32* %5, align 4
  %91 = add nsw i32 %90, 1
  store i32 %91, i32* %5, align 4
  br label %78

92:                                               ; preds = %78
  store i32 1, i32* %6, align 4
  br label %96

93:                                               ; preds = %56
  %94 = load i32, i32* %4, align 4
  %95 = add nsw i32 %94, 1
  store i32 %95, i32* %4, align 4
  br label %23

96:                                               ; preds = %92, %23
  %97 = load i32, i32* %6, align 4
  %98 = icmp eq i32 %97, 0
  br i1 %98, label %99, label %102

99:                                               ; preds = %96
  %100 = getelementptr inbounds [300 x i8], [300 x i8]* %8, i64 0, i64 0
  %101 = call i32 (i8*, ...) @printf(i8* getelementptr inbounds ([3 x i8], [3 x i8]* @.str.1, i64 0, i64 0), i8* %100)
  br label %102

102:                                              ; preds = %99, %96
  ret i32 0
}

declare dso_local i32 @gets(...) #1

; Function Attrs: nounwind readonly
declare dso_local i64 @strlen(i8*) #2

declare dso_local i32 @printf(i8*, ...) #1


!llvm.module.flags = !{!0}
!llvm.ident = !{!1}

!0 = !{i32 1, !"wchar_size", i32 4}
!1 = !{!"clang version 10.0.0-4ubuntu1 "}
